target datalayout = "e-m:e-p270:32:32-p271:32:32-p272:64:64-i64:64-i128:128-f80:128-n8:16:32:64-S128"
target triple = "x86_64-pc-linux-gnu"

%"class.toku::keyrange" = type <{ %struct.__toku_dbt, %struct.__toku_dbt, ptr, ptr, i8, [7 x i8] }>
%struct.__toku_dbt = type { ptr, i64, i64, i32 }
%"class.toku::comparator" = type <{ ptr, ptr, i8, [7 x i8] }>

; Function Attrs: inlinehint mustprogress nounwind uwtable
define linkonce_odr noundef zeroext i1 @_ZNK4toku10comparator20dbt_has_memcmp_magicEPK10__toku_dbt(ptr noundef nonnull align 8 dereferenceable(17) %0, ptr noundef %1) #6 comdat align 2 {
  %3 = alloca ptr, align 8
  %4 = alloca ptr, align 8
  store ptr %0, ptr %3, align 8, !tbaa !25
  store ptr %1, ptr %4, align 8, !tbaa !9
  %5 = load ptr, ptr %3, align 8
  %6 = load ptr, ptr %4, align 8, !tbaa !9
  %7 = getelementptr inbounds nuw %struct.__toku_dbt, ptr %6, i32 0, i32 0
  %8 = load ptr, ptr %7, align 8, !tbaa !34
  %9 = load i8, ptr %8, align 1, !tbaa !35
  %10 = sext i8 %9 to i32
  %11 = getelementptr inbounds nuw %"class.toku::comparator", ptr %5, i32 0, i32 2
  %12 = load i8, ptr %11, align 8, !tbaa !27
  %13 = zext i8 %12 to i32
  %14 = icmp eq i32 %10, %13
  ret i1 %14
}

; Function Attrs: mustprogress uwtable
define void @_ZN4toku8keyrange17replace_right_keyEPK10__toku_dbt(ptr noundef nonnull align 8 dereferenceable(81) %0, ptr noundef %1) #0 align 2 {
  %3 = alloca ptr, align 8
  %4 = alloca ptr, align 8
  store ptr %0, ptr %3, align 8, !tbaa !4
  store ptr %1, ptr %4, align 8, !tbaa !9
  %5 = load ptr, ptr %3, align 8
  %6 = getelementptr inbounds nuw %"class.toku::keyrange", ptr %5, i32 0, i32 1
  call void @_Z16toku_destroy_dbtP10__toku_dbt(ptr noundef %6)
  %7 = load ptr, ptr %4, align 8, !tbaa !9
  %8 = call noundef zeroext i1 @_Z20toku_dbt_is_infinitePK10__toku_dbt(ptr noundef %7)
  br i1 %8, label %9, label %12

9:                                                ; preds = %2
  %10 = load ptr, ptr %4, align 8, !tbaa !9
  %11 = getelementptr inbounds nuw %"class.toku::keyrange", ptr %5, i32 0, i32 3
  store ptr %10, ptr %11, align 8, !tbaa !17
  br label %17

12:                                               ; preds = %2
  %13 = getelementptr inbounds nuw %"class.toku::keyrange", ptr %5, i32 0, i32 1
  %14 = load ptr, ptr %4, align 8, !tbaa !9
  %15 = call noundef ptr @_Z14toku_clone_dbtP10__toku_dbtRKS_(ptr noundef %13, ptr noundef nonnull align 8 dereferenceable(32) %14)
  %16 = getelementptr inbounds nuw %"class.toku::keyrange", ptr %5, i32 0, i32 3
  store ptr null, ptr %16, align 8, !tbaa !17
  br label %17

17:                                               ; preds = %12, %9
  %18 = getelementptr inbounds nuw %"class.toku::keyrange", ptr %5, i32 0, i32 4
  store i8 0, ptr %18, align 8, !tbaa !18
  ret void
}

; Function Attrs: mustprogress uwtable
define void @_ZN4toku8keyrange16replace_left_keyEPK10__toku_dbt(ptr noundef nonnull align 8 dereferenceable(81) %0, ptr noundef %1) #0 align 2 {
  %3 = alloca ptr, align 8
  %4 = alloca ptr, align 8
  store ptr %0, ptr %3, align 8, !tbaa !4
  store ptr %1, ptr %4, align 8, !tbaa !9
  %5 = load ptr, ptr %3, align 8
  %6 = getelementptr inbounds nuw %"class.toku::keyrange", ptr %5, i32 0, i32 4
  %7 = load i8, ptr %6, align 8, !tbaa !18, !range !23, !noundef !24
  %8 = trunc i8 %7 to i1
  br i1 %8, label %9, label %12

9:                                                ; preds = %2
  %10 = getelementptr inbounds nuw %"class.toku::keyrange", ptr %5, i32 0, i32 0
  %11 = getelementptr inbounds nuw %"class.toku::keyrange", ptr %5, i32 0, i32 1
  call void @llvm.memcpy.p0.p0.i64(ptr align 8 %11, ptr align 8 %10, i64 32, i1 false), !tbaa.struct !19
  br label %14

12:                                               ; preds = %2
  %13 = getelementptr inbounds nuw %"class.toku::keyrange", ptr %5, i32 0, i32 0
  call void @_Z16toku_destroy_dbtP10__toku_dbt(ptr noundef %13)
  br label %14

14:                                               ; preds = %12, %9
  %15 = load ptr, ptr %4, align 8, !tbaa !9
  %16 = call noundef zeroext i1 @_Z20toku_dbt_is_infinitePK10__toku_dbt(ptr noundef %15)
  br i1 %16, label %17, label %20

17:                                               ; preds = %14
  %18 = load ptr, ptr %4, align 8, !tbaa !9
  %19 = getelementptr inbounds nuw %"class.toku::keyrange", ptr %5, i32 0, i32 2
  store ptr %18, ptr %19, align 8, !tbaa !11
  br label %25

20:                                               ; preds = %14
  %21 = getelementptr inbounds nuw %"class.toku::keyrange", ptr %5, i32 0, i32 0
  %22 = load ptr, ptr %4, align 8, !tbaa !9
  %23 = call noundef ptr @_Z14toku_clone_dbtP10__toku_dbtRKS_(ptr noundef %21, ptr noundef nonnull align 8 dereferenceable(32) %22)
  %24 = getelementptr inbounds nuw %"class.toku::keyrange", ptr %5, i32 0, i32 2
  store ptr null, ptr %24, align 8, !tbaa !11
  br label %25

25:                                               ; preds = %20, %17
  %26 = getelementptr inbounds nuw %"class.toku::keyrange", ptr %5, i32 0, i32 4
  store i8 0, ptr %26, align 8, !tbaa !18
  ret void
}

; Function Attrs: mustprogress uwtable
define linkonce_odr noundef i32 @_ZNK4toku10comparatorclEPK10__toku_dbtS3_(ptr noundef nonnull align 8 dereferenceable(17) %0, ptr noundef %1, ptr noundef %2) #0 comdat align 2 {
  %4 = alloca i32, align 4
  %5 = alloca ptr, align 8
  %6 = alloca ptr, align 8
  %7 = alloca ptr, align 8
  store ptr %0, ptr %5, align 8, !tbaa !25
  store ptr %1, ptr %6, align 8, !tbaa !9
  store ptr %2, ptr %7, align 8, !tbaa !9
  %8 = load ptr, ptr %5, align 8
  %9 = load ptr, ptr %6, align 8, !tbaa !9
  %10 = call noundef zeroext i1 @_Z20toku_dbt_is_infinitePK10__toku_dbt(ptr noundef %9)
  br i1 %10, label %14, label %11

11:                                               ; preds = %3
  %12 = load ptr, ptr %7, align 8, !tbaa !9
  %13 = call noundef zeroext i1 @_Z20toku_dbt_is_infinitePK10__toku_dbt(ptr noundef %12)
  br label %14

14:                                               ; preds = %11, %3
  %15 = phi i1 [ true, %3 ], [ %13, %11 ]
  %16 = zext i1 %15 to i64
  %17 = call i64 @llvm.expect.i64(i64 %16, i64 0)
  %18 = icmp ne i64 %17, 0
  br i1 %18, label %19, label %23

19:                                               ; preds = %14
  %20 = load ptr, ptr %6, align 8, !tbaa !9
  %21 = load ptr, ptr %7, align 8, !tbaa !9
  %22 = call noundef i32 @_Z25toku_dbt_infinite_comparePK10__toku_dbtS1_(ptr noundef %20, ptr noundef %21)
  store i32 %22, ptr %4, align 4
  br label %49

23:                                               ; preds = %14
  %24 = getelementptr inbounds nuw %"class.toku::comparator", ptr %8, i32 0, i32 2
  %25 = load i8, ptr %24, align 8, !tbaa !27
  %26 = zext i8 %25 to i32
  %27 = icmp ne i32 %26, 0
  br i1 %27, label %28, label %41

28:                                               ; preds = %23
  %29 = load ptr, ptr %6, align 8, !tbaa !9
  %30 = call noundef zeroext i1 @_ZNK4toku10comparator20dbt_has_memcmp_magicEPK10__toku_dbt(ptr noundef nonnull align 8 dereferenceable(17) %8, ptr noundef %29)
  br i1 %30, label %31, label %41

31:                                               ; preds = %28
  %32 = load ptr, ptr %7, align 8, !tbaa !9
  %33 = call noundef zeroext i1 @_ZNK4toku10comparator20dbt_has_memcmp_magicEPK10__toku_dbt(ptr noundef nonnull align 8 dereferenceable(17) %8, ptr noundef %32)
  %34 = zext i1 %33 to i64
  %35 = call i64 @llvm.expect.i64(i64 %34, i64 1)
  %36 = icmp ne i64 %35, 0
  br i1 %36, label %37, label %41

37:                                               ; preds = %31
  %38 = load ptr, ptr %6, align 8, !tbaa !9
  %39 = load ptr, ptr %7, align 8, !tbaa !9
  %40 = call noundef i32 @_Z24toku_builtin_compare_funPK10__toku_dbtS1_(ptr noundef %38, ptr noundef %39)
  store i32 %40, ptr %4, align 4
  br label %49

41:                                               ; preds = %31, %28, %23
  %42 = getelementptr inbounds nuw %"class.toku::comparator", ptr %8, i32 0, i32 0
  %43 = load ptr, ptr %42, align 8, !tbaa !29
  %44 = getelementptr inbounds nuw %"class.toku::comparator", ptr %8, i32 0, i32 1
  %45 = load ptr, ptr %44, align 8, !tbaa !30
  %46 = load ptr, ptr %6, align 8, !tbaa !9
  %47 = load ptr, ptr %7, align 8, !tbaa !9
  %48 = call noundef i32 %43(ptr noundef %45, ptr noundef %46, ptr noundef %47)
  store i32 %48, ptr %4, align 4
  br label %49

49:                                               ; preds = %41, %37, %19
  %50 = load i32, ptr %4, align 4
  ret i32 %50
}

; Function Attrs: mustprogress nounwind uwtable
define noundef ptr @_ZNK4toku8keyrange13get_right_keyEv(ptr noundef nonnull align 8 dereferenceable(81) %0) #2 align 2 {
  %2 = alloca ptr, align 8
  %3 = alloca ptr, align 8
  store ptr %0, ptr %3, align 8, !tbaa !4
  %4 = load ptr, ptr %3, align 8
  %5 = getelementptr inbounds nuw %"class.toku::keyrange", ptr %4, i32 0, i32 3
  %6 = load ptr, ptr %5, align 8, !tbaa !17
  %7 = icmp ne ptr %6, null
  br i1 %7, label %8, label %11

8:                                                ; preds = %1
  %9 = getelementptr inbounds nuw %"class.toku::keyrange", ptr %4, i32 0, i32 3
  %10 = load ptr, ptr %9, align 8, !tbaa !17
  store ptr %10, ptr %2, align 8
  br label %13

11:                                               ; preds = %1
  %12 = getelementptr inbounds nuw %"class.toku::keyrange", ptr %4, i32 0, i32 1
  store ptr %12, ptr %2, align 8
  br label %13

13:                                               ; preds = %11, %8
  %14 = load ptr, ptr %2, align 8
  ret ptr %14
}

; Function Attrs: mustprogress nounwind uwtable
define noundef ptr @_ZNK4toku8keyrange12get_left_keyEv(ptr noundef nonnull align 8 dereferenceable(81) %0) #2 align 2 {
  %2 = alloca ptr, align 8
  %3 = alloca ptr, align 8
  store ptr %0, ptr %3, align 8, !tbaa !4
  %4 = load ptr, ptr %3, align 8
  %5 = getelementptr inbounds nuw %"class.toku::keyrange", ptr %4, i32 0, i32 2
  %6 = load ptr, ptr %5, align 8, !tbaa !11
  %7 = icmp ne ptr %6, null
  br i1 %7, label %8, label %11

8:                                                ; preds = %1
  %9 = getelementptr inbounds nuw %"class.toku::keyrange", ptr %4, i32 0, i32 2
  %10 = load ptr, ptr %9, align 8, !tbaa !11
  store ptr %10, ptr %2, align 8
  br label %13

11:                                               ; preds = %1
  %12 = getelementptr inbounds nuw %"class.toku::keyrange", ptr %4, i32 0, i32 0
  store ptr %12, ptr %2, align 8
  br label %13

13:                                               ; preds = %11, %8
  %14 = load ptr, ptr %2, align 8
  ret ptr %14
}

; Function Attrs: mustprogress uwtable
define void @_ZN4toku8keyrange6extendERKNS_10comparatorERKS0_(ptr noundef nonnull align 8 dereferenceable(81) %0, ptr noundef nonnull align 8 dereferenceable(17) %1, ptr noundef nonnull align 8 dereferenceable(81) %2) #0 align 2 {
  %4 = alloca ptr, align 8
  %5 = alloca ptr, align 8
  %6 = alloca ptr, align 8
  %7 = alloca ptr, align 8
  %8 = alloca ptr, align 8
  store ptr %0, ptr %4, align 8, !tbaa !4
  store ptr %1, ptr %5, align 8, !tbaa !25
  store ptr %2, ptr %6, align 8, !tbaa !4
  %9 = load ptr, ptr %4, align 8
  call void @llvm.lifetime.start.p0(i64 8, ptr %7) #7
  %10 = load ptr, ptr %6, align 8, !tbaa !4
  %11 = call noundef ptr @_ZNK4toku8keyrange12get_left_keyEv(ptr noundef nonnull align 8 dereferenceable(81) %10)
  store ptr %11, ptr %7, align 8, !tbaa !9
  call void @llvm.lifetime.start.p0(i64 8, ptr %8) #7
  %12 = load ptr, ptr %6, align 8, !tbaa !4
  %13 = call noundef ptr @_ZNK4toku8keyrange13get_right_keyEv(ptr noundef nonnull align 8 dereferenceable(81) %12)
  store ptr %13, ptr %8, align 8, !tbaa !9
  %14 = load ptr, ptr %5, align 8, !tbaa !25
  %15 = load ptr, ptr %7, align 8, !tbaa !9
  %16 = call noundef ptr @_ZNK4toku8keyrange12get_left_keyEv(ptr noundef nonnull align 8 dereferenceable(81) %9)
  %17 = call noundef i32 @_ZNK4toku10comparatorclEPK10__toku_dbtS3_(ptr noundef nonnull align 8 dereferenceable(17) %14, ptr noundef %15, ptr noundef %16)
  %18 = icmp slt i32 %17, 0
  br i1 %18, label %19, label %21

19:                                               ; preds = %3
  %20 = load ptr, ptr %7, align 8, !tbaa !9
  call void @_ZN4toku8keyrange16replace_left_keyEPK10__toku_dbt(ptr noundef nonnull align 8 dereferenceable(81) %9, ptr noundef %20)
  br label %21

21:                                               ; preds = %19, %3
  %22 = load ptr, ptr %5, align 8, !tbaa !25
  %23 = load ptr, ptr %8, align 8, !tbaa !9
  %24 = call noundef ptr @_ZNK4toku8keyrange13get_right_keyEv(ptr noundef nonnull align 8 dereferenceable(81) %9)
  %25 = call noundef i32 @_ZNK4toku10comparatorclEPK10__toku_dbtS3_(ptr noundef nonnull align 8 dereferenceable(17) %22, ptr noundef %23, ptr noundef %24)
  %26 = icmp sgt i32 %25, 0
  br i1 %26, label %27, label %29

27:                                               ; preds = %21
  %28 = load ptr, ptr %8, align 8, !tbaa !9
  call void @_ZN4toku8keyrange17replace_right_keyEPK10__toku_dbt(ptr noundef nonnull align 8 dereferenceable(81) %9, ptr noundef %28)
  br label %29

29:                                               ; preds = %27, %21
  call void @llvm.lifetime.end.p0(i64 8, ptr %8) #7
  call void @llvm.lifetime.end.p0(i64 8, ptr %7) #7
  ret void
}