; Function Attrs: mustprogress uwtable
define void @_ZN4toku8keyrange6extendERKNS_10comparatorERKS0_(ptr noundef nonnull align 8 dereferenceable(81) %0, ptr noundef nonnull readonly align 8 captures(none) dereferenceable(17) %1, ptr noundef nonnull align 8 dereferenceable(81) %2) local_unnamed_addr #0 align 2 {
  %4 = getelementptr inbounds nuw i8, ptr %2, i64 64
  %5 = load ptr, ptr %4, align 8, !tbaa !14
  %.not.i = icmp eq ptr %5, null
  %..i = select i1 %.not.i, ptr %2, ptr %5
  %6 = getelementptr inbounds nuw i8, ptr %2, i64 72
  %7 = load ptr, ptr %6, align 8, !tbaa !15
  %.not.i9 = icmp eq ptr %7, null
  %8 = getelementptr inbounds nuw i8, ptr %2, i64 32
  %.0.i = select i1 %.not.i9, ptr %8, ptr %7
  %9 = getelementptr inbounds nuw i8, ptr %0, i64 64
  %10 = load ptr, ptr %9, align 8, !tbaa !14
  %.not.i10 = icmp eq ptr %10, null
  %..i11 = select i1 %.not.i10, ptr %0, ptr %10
  %11 = tail call noundef zeroext i1 @_Z20toku_dbt_is_infinitePK10__toku_dbt(ptr noundef nonnull %..i)
  br i1 %11, label %.critedge.i, label %12, !prof !22

12:                                               ; preds = %3
  %13 = tail call noundef zeroext i1 @_Z20toku_dbt_is_infinitePK10__toku_dbt(ptr noundef nonnull %..i11)
  br i1 %13, label %.critedge.i, label %15, !prof !22

.critedge.i:                                      ; preds = %12, %3
  %14 = tail call noundef i32 @_Z25toku_dbt_infinite_comparePK10__toku_dbtS1_(ptr noundef nonnull %..i, ptr noundef nonnull %..i11)
  br label %_ZNK4toku10comparatorclEPK10__toku_dbtS3_.exit

15:                                               ; preds = %12
  %16 = getelementptr inbounds nuw i8, ptr %1, i64 16
  %17 = load i8, ptr %16, align 8, !tbaa !23
  %.not.i12 = icmp eq i8 %17, 0
  br i1 %.not.i12, label %30, label %18

18:                                               ; preds = %15
  %19 = load ptr, ptr %..i, align 8, !tbaa !25
  %20 = load i8, ptr %19, align 1, !tbaa !26
  %21 = sext i8 %20 to i32
  %22 = zext i8 %17 to i32
  %23 = icmp eq i32 %21, %22
  br i1 %23, label %24, label %30

24:                                               ; preds = %18
  %25 = load ptr, ptr %..i11, align 8, !tbaa !25
  %26 = load i8, ptr %25, align 1, !tbaa !26
  %27 = icmp eq i8 %26, %20
  br i1 %27, label %28, label %30, !prof !27

28:                                               ; preds = %24
  %29 = tail call noundef i32 @_Z24toku_builtin_compare_funPK10__toku_dbtS1_(ptr noundef nonnull %..i, ptr noundef nonnull %..i11)
  br label %_ZNK4toku10comparatorclEPK10__toku_dbtS3_.exit

30:                                               ; preds = %24, %18, %15
  %31 = load ptr, ptr %1, align 8, !tbaa !28
  %32 = getelementptr inbounds nuw i8, ptr %1, i64 8
  %33 = load ptr, ptr %32, align 8, !tbaa !29
  %34 = tail call noundef i32 %31(ptr noundef %33, ptr noundef nonnull %..i, ptr noundef nonnull %..i11)
  br label %_ZNK4toku10comparatorclEPK10__toku_dbtS3_.exit

_ZNK4toku10comparatorclEPK10__toku_dbtS3_.exit:   ; preds = %.critedge.i, %28, %30
  %.0.i13 = phi i32 [ %14, %.critedge.i ], [ %29, %28 ], [ %34, %30 ]
  %35 = icmp slt i32 %.0.i13, 0
  br i1 %35, label %36, label %47

36:                                               ; preds = %_ZNK4toku10comparatorclEPK10__toku_dbtS3_.exit
  %37 = getelementptr inbounds nuw i8, ptr %0, i64 80
  %38 = load i8, ptr %37, align 8, !tbaa !4, !range !16, !noundef !17
  %39 = trunc nuw i8 %38 to i1
  br i1 %39, label %40, label %42

40:                                               ; preds = %36
  %41 = getelementptr inbounds nuw i8, ptr %0, i64 32
  tail call void @llvm.memcpy.p0.p0.i64(ptr noundef nonnull align 8 dereferenceable(32) %41, ptr noundef nonnull align 8 dereferenceable(81) %0, i64 32, i1 false), !tbaa.struct !18
  br label %43

42:                                               ; preds = %36
  tail call void @_Z16toku_destroy_dbtP10__toku_dbt(ptr noundef nonnull align 8 dereferenceable(81) %0)
  br label %43

43:                                               ; preds = %42, %40
  %44 = tail call noundef zeroext i1 @_Z20toku_dbt_is_infinitePK10__toku_dbt(ptr noundef nonnull %..i)
  br i1 %44, label %_ZN4toku8keyrange16replace_left_keyEPK10__toku_dbt.exit, label %45

45:                                               ; preds = %43
  %46 = tail call noundef ptr @_Z14toku_clone_dbtP10__toku_dbtRKS_(ptr noundef nonnull align 8 dereferenceable(81) %0, ptr noundef nonnull align 8 dereferenceable(32) %..i)
  br label %_ZN4toku8keyrange16replace_left_keyEPK10__toku_dbt.exit

_ZN4toku8keyrange16replace_left_keyEPK10__toku_dbt.exit: ; preds = %43, %45
  %.sink.i = phi ptr [ null, %45 ], [ %..i, %43 ]
  store ptr %.sink.i, ptr %9, align 8, !tbaa !14
  store i8 0, ptr %37, align 8, !tbaa !4
  br label %47

47:                                               ; preds = %_ZN4toku8keyrange16replace_left_keyEPK10__toku_dbt.exit, %_ZNK4toku10comparatorclEPK10__toku_dbtS3_.exit
  %48 = getelementptr inbounds nuw i8, ptr %0, i64 72
  %49 = load ptr, ptr %48, align 8, !tbaa !15
  %.not.i14 = icmp eq ptr %49, null
  %50 = getelementptr inbounds nuw i8, ptr %0, i64 32
  %.0.i15 = select i1 %.not.i14, ptr %50, ptr %49
  %51 = tail call noundef zeroext i1 @_Z20toku_dbt_is_infinitePK10__toku_dbt(ptr noundef nonnull %.0.i)
  br i1 %51, label %.critedge.i18, label %52, !prof !22

52:                                               ; preds = %47
  %53 = tail call noundef zeroext i1 @_Z20toku_dbt_is_infinitePK10__toku_dbt(ptr noundef nonnull %.0.i15)
  br i1 %53, label %.critedge.i18, label %55, !prof !22

.critedge.i18:                                    ; preds = %52, %47
  %54 = tail call noundef i32 @_Z25toku_dbt_infinite_comparePK10__toku_dbtS1_(ptr noundef nonnull %.0.i, ptr noundef nonnull %.0.i15)
  br label %_ZNK4toku10comparatorclEPK10__toku_dbtS3_.exit19

55:                                               ; preds = %52
  %56 = getelementptr inbounds nuw i8, ptr %1, i64 16
  %57 = load i8, ptr %56, align 8, !tbaa !23
  %.not.i16 = icmp eq i8 %57, 0
  br i1 %.not.i16, label %70, label %58

58:                                               ; preds = %55
  %59 = load ptr, ptr %.0.i, align 8, !tbaa !25
  %60 = load i8, ptr %59, align 1, !tbaa !26
  %61 = sext i8 %60 to i32
  %62 = zext i8 %57 to i32
  %63 = icmp eq i32 %61, %62
  br i1 %63, label %64, label %70

64:                                               ; preds = %58
  %65 = load ptr, ptr %.0.i15, align 8, !tbaa !25
  %66 = load i8, ptr %65, align 1, !tbaa !26
  %67 = icmp eq i8 %66, %60
  br i1 %67, label %68, label %70, !prof !27

68:                                               ; preds = %64
  %69 = tail call noundef i32 @_Z24toku_builtin_compare_funPK10__toku_dbtS1_(ptr noundef nonnull %.0.i, ptr noundef nonnull %.0.i15)
  br label %_ZNK4toku10comparatorclEPK10__toku_dbtS3_.exit19

70:                                               ; preds = %64, %58, %55
  %71 = load ptr, ptr %1, align 8, !tbaa !28
  %72 = getelementptr inbounds nuw i8, ptr %1, i64 8
  %73 = load ptr, ptr %72, align 8, !tbaa !29
  %74 = tail call noundef i32 %71(ptr noundef %73, ptr noundef nonnull %.0.i, ptr noundef nonnull %.0.i15)
  br label %_ZNK4toku10comparatorclEPK10__toku_dbtS3_.exit19

_ZNK4toku10comparatorclEPK10__toku_dbtS3_.exit19: ; preds = %.critedge.i18, %68, %70
  %.0.i17 = phi i32 [ %54, %.critedge.i18 ], [ %69, %68 ], [ %74, %70 ]
  %75 = icmp sgt i32 %.0.i17, 0
  br i1 %75, label %76, label %81

76:                                               ; preds = %_ZNK4toku10comparatorclEPK10__toku_dbtS3_.exit19
  tail call void @_Z16toku_destroy_dbtP10__toku_dbt(ptr noundef nonnull %50)
  %77 = tail call noundef zeroext i1 @_Z20toku_dbt_is_infinitePK10__toku_dbt(ptr noundef nonnull %.0.i)
  br i1 %77, label %_ZN4toku8keyrange17replace_right_keyEPK10__toku_dbt.exit, label %78

78:                                               ; preds = %76
  %79 = tail call noundef ptr @_Z14toku_clone_dbtP10__toku_dbtRKS_(ptr noundef nonnull %50, ptr noundef nonnull align 8 dereferenceable(32) %.0.i)
  br label %_ZN4toku8keyrange17replace_right_keyEPK10__toku_dbt.exit

_ZN4toku8keyrange17replace_right_keyEPK10__toku_dbt.exit: ; preds = %76, %78
  %.sink.i20 = phi ptr [ null, %78 ], [ %.0.i, %76 ]
  store ptr %.sink.i20, ptr %48, align 8, !tbaa !15
  %80 = getelementptr inbounds nuw i8, ptr %0, i64 80
  store i8 0, ptr %80, align 8, !tbaa !4
  br label %81

81:                                               ; preds = %_ZN4toku8keyrange17replace_right_keyEPK10__toku_dbt.exit, %_ZNK4toku10comparatorclEPK10__toku_dbtS3_.exit19
  ret void
}